target datalayout = "e-m:e-p270:32:32-p271:32:32-p272:64:64-i64:64-i128:128-f80:128-n8:16:32:64-S128"
target triple = "x86_64-pc-linux-gnu"

%struct._object = type { %union.anon, ptr }
%union.anon = type { i64 }
%struct._longobject = type { %struct._object, %struct._PyLongValue }
%struct._PyLongValue = type { i64, [1 x i32] }
%struct.anon = type { i32, i32 }

@.str.55 = private unnamed_addr constant [5 x i8] c"comb\00", align 1
@PyExc_OverflowError = external global ptr, align 8
@PyExc_ValueError = external global ptr, align 8
@.str.87 = private unnamed_addr constant [33 x i8] c"n must be a non-negative integer\00", align 1
@.str.88 = private unnamed_addr constant [33 x i8] c"k must be a non-negative integer\00", align 1
@.str.90 = private unnamed_addr constant [35 x i8] c"min(n - k, k) must not exceed %lld\00", align 1

; Function Attrs: alwaysinline nounwind uwtable
define internal i32 @_Py_IsImmortal(ptr noundef %0) #7 {
  %2 = alloca ptr, align 8
  store ptr %0, ptr %2, align 8, !tbaa !3
  %3 = load ptr, ptr %2, align 8, !tbaa !3
  %4 = getelementptr inbounds nuw %struct._object, ptr %3, i32 0, i32 0
  %5 = getelementptr inbounds nuw %struct.anon, ptr %4, i32 0, i32 0
  %6 = load i32, ptr %5, align 8, !tbaa !47
  %7 = icmp slt i32 %6, 0
  %8 = zext i1 %7 to i32
  ret i32 %8
}

; Function Attrs: inlinehint nounwind uwtable
define internal zeroext i1 @_PyLong_IsNegative(ptr noundef %0) #6 {
  %2 = alloca ptr, align 8
  store ptr %0, ptr %2, align 8, !tbaa !73
  %3 = load ptr, ptr %2, align 8, !tbaa !73
  %4 = getelementptr inbounds nuw %struct._longobject, ptr %3, i32 0, i32 1
  %5 = getelementptr inbounds nuw %struct._PyLongValue, ptr %4, i32 0, i32 0
  %6 = load i64, ptr %5, align 8, !tbaa !75
  %7 = and i64 %6, 3
  %8 = icmp eq i64 %7, 2
  ret i1 %8
}

; Function Attrs: alwaysinline nounwind uwtable
define internal void @Py_DECREF(ptr noundef %0) #7 {
  %2 = alloca ptr, align 8
  store ptr %0, ptr %2, align 8, !tbaa !3
  %3 = load ptr, ptr %2, align 8, !tbaa !3
  %4 = call i32 @_Py_IsImmortal(ptr noundef %3)
  %5 = icmp ne i32 %4, 0
  br i1 %5, label %6, label %7

6:                                                ; preds = %1
  br label %16

7:                                                ; preds = %1
  %8 = load ptr, ptr %2, align 8, !tbaa !3
  %9 = getelementptr inbounds nuw %struct._object, ptr %8, i32 0, i32 0
  %10 = getelementptr inbounds nuw %struct.anon, ptr %9, i32 0, i32 0
  %11 = load i32, ptr %10, align 8, !tbaa !47
  %12 = add i32 %11, -1
  store i32 %12, ptr %10, align 8, !tbaa !47
  %13 = icmp eq i32 %12, 0
  br i1 %13, label %14, label %16

14:                                               ; preds = %7
  %15 = load ptr, ptr %2, align 8, !tbaa !3
  call void @_Py_Dealloc(ptr noundef %15)
  br label %16

16:                                               ; preds = %6, %14, %7
  ret void
}

; Function Attrs: nounwind uwtable
define internal ptr @math_comb_impl(ptr noundef %0, ptr noundef %1, ptr noundef %2) #0 {
  %4 = alloca ptr, align 8
  %5 = alloca ptr, align 8
  %6 = alloca ptr, align 8
  %7 = alloca ptr, align 8
  %8 = alloca ptr, align 8
  %9 = alloca ptr, align 8
  %10 = alloca i32, align 4
  %11 = alloca i32, align 4
  %12 = alloca i64, align 8
  %13 = alloca i64, align 8
  %14 = alloca i32, align 4
  %15 = alloca ptr, align 8
  %16 = alloca ptr, align 8
  store ptr %0, ptr %5, align 8, !tbaa !3
  store ptr %1, ptr %6, align 8, !tbaa !3
  store ptr %2, ptr %7, align 8, !tbaa !3
  call void @llvm.lifetime.start.p0(i64 8, ptr %8) #10
  store ptr null, ptr %8, align 8, !tbaa !3
  call void @llvm.lifetime.start.p0(i64 8, ptr %9) #10
  call void @llvm.lifetime.start.p0(i64 4, ptr %10) #10
  call void @llvm.lifetime.start.p0(i64 4, ptr %11) #10
  call void @llvm.lifetime.start.p0(i64 8, ptr %12) #10
  call void @llvm.lifetime.start.p0(i64 8, ptr %13) #10
  %17 = load ptr, ptr %6, align 8, !tbaa !3
  %18 = call ptr @PyNumber_Index(ptr noundef %17)
  store ptr %18, ptr %6, align 8, !tbaa !3
  %19 = load ptr, ptr %6, align 8, !tbaa !3
  %20 = icmp eq ptr %19, null
  br i1 %20, label %21, label %22

21:                                               ; preds = %3
  store ptr null, ptr %4, align 8
  store i32 1, ptr %14, align 4
  br label %130

22:                                               ; preds = %3
  %23 = load ptr, ptr %7, align 8, !tbaa !3
  %24 = call ptr @PyNumber_Index(ptr noundef %23)
  store ptr %24, ptr %7, align 8, !tbaa !3
  %25 = load ptr, ptr %7, align 8, !tbaa !3
  %26 = icmp eq ptr %25, null
  br i1 %26, label %27, label %29

27:                                               ; preds = %22
  %28 = load ptr, ptr %6, align 8, !tbaa !3
  call void @Py_DECREF(ptr noundef %28)
  store ptr null, ptr %4, align 8
  store i32 1, ptr %14, align 4
  br label %130

29:                                               ; preds = %22
  %30 = load ptr, ptr %6, align 8, !tbaa !3
  %31 = call zeroext i1 @_PyLong_IsNegative(ptr noundef %30)
  br i1 %31, label %32, label %34

32:                                               ; preds = %29
  %33 = load ptr, ptr @PyExc_ValueError, align 8, !tbaa !3
  call void @PyErr_SetString(ptr noundef %33, ptr noundef @.str.87)
  br label %127

34:                                               ; preds = %29
  %35 = load ptr, ptr %7, align 8, !tbaa !3
  %36 = call zeroext i1 @_PyLong_IsNegative(ptr noundef %35)
  br i1 %36, label %37, label %39

37:                                               ; preds = %34
  %38 = load ptr, ptr @PyExc_ValueError, align 8, !tbaa !3
  call void @PyErr_SetString(ptr noundef %38, ptr noundef @.str.88)
  br label %127

39:                                               ; preds = %34
  %40 = load ptr, ptr %6, align 8, !tbaa !3
  %41 = call i64 @PyLong_AsLongLongAndOverflow(ptr noundef %40, ptr noundef %10)
  store i64 %41, ptr %13, align 8, !tbaa !91
  %42 = load i32, ptr %10, align 4, !tbaa !17
  %43 = icmp ne i32 %42, 0
  br i1 %43, label %76, label %44

44:                                               ; preds = %39
  %45 = load ptr, ptr %7, align 8, !tbaa !3
  %46 = call i64 @PyLong_AsLongLongAndOverflow(ptr noundef %45, ptr noundef %10)
  store i64 %46, ptr %12, align 8, !tbaa !91
  %47 = load i32, ptr %10, align 4, !tbaa !17
  %48 = icmp ne i32 %47, 0
  br i1 %48, label %53, label %49

49:                                               ; preds = %44
  %50 = load i64, ptr %12, align 8, !tbaa !91
  %51 = load i64, ptr %13, align 8, !tbaa !91
  %52 = icmp sgt i64 %50, %51
  br i1 %52, label %53, label %55

53:                                               ; preds = %49, %44
  %54 = call ptr @PyLong_FromLong(i64 noundef 0)
  store ptr %54, ptr %8, align 8, !tbaa !3
  br label %123

55:                                               ; preds = %49
  %56 = load i64, ptr %12, align 8, !tbaa !91
  %57 = load i64, ptr %13, align 8, !tbaa !91
  %58 = load i64, ptr %12, align 8, !tbaa !91
  %59 = sub i64 %57, %58
  %60 = icmp sgt i64 %56, %59
  br i1 %60, label %61, label %65

61:                                               ; preds = %55
  %62 = load i64, ptr %13, align 8, !tbaa !91
  %63 = load i64, ptr %12, align 8, !tbaa !91
  %64 = sub i64 %62, %63
  br label %67

65:                                               ; preds = %55
  %66 = load i64, ptr %12, align 8, !tbaa !91
  br label %67

67:                                               ; preds = %65, %61
  %68 = phi i64 [ %64, %61 ], [ %66, %65 ]
  store i64 %68, ptr %12, align 8, !tbaa !91
  %69 = load i64, ptr %12, align 8, !tbaa !91
  %70 = icmp sgt i64 %69, 1
  br i1 %70, label %71, label %75

71:                                               ; preds = %67
  %72 = load i64, ptr %13, align 8, !tbaa !91
  %73 = load i64, ptr %12, align 8, !tbaa !91
  %74 = call ptr @perm_comb_small(i64 noundef %72, i64 noundef %73, i32 noundef 1)
  store ptr %74, ptr %8, align 8, !tbaa !3
  br label %123

75:                                               ; preds = %67
  br label %119

76:                                               ; preds = %39
  %77 = load ptr, ptr %6, align 8, !tbaa !3
  %78 = load ptr, ptr %7, align 8, !tbaa !3
  %79 = call ptr @PyNumber_Subtract(ptr noundef %77, ptr noundef %78)
  store ptr %79, ptr %9, align 8, !tbaa !3
  %80 = load ptr, ptr %9, align 8, !tbaa !3
  %81 = icmp eq ptr %80, null
  br i1 %81, label %82, label %83

82:                                               ; preds = %76
  br label %127

83:                                               ; preds = %76
  %84 = load ptr, ptr %9, align 8, !tbaa !3
  %85 = call zeroext i1 @_PyLong_IsNegative(ptr noundef %84)
  br i1 %85, label %86, label %89

86:                                               ; preds = %83
  %87 = load ptr, ptr %9, align 8, !tbaa !3
  call void @Py_DECREF(ptr noundef %87)
  %88 = call ptr @PyLong_FromLong(i64 noundef 0)
  store ptr %88, ptr %8, align 8, !tbaa !3
  br label %123

89:                                               ; preds = %83
  %90 = load ptr, ptr %9, align 8, !tbaa !3
  %91 = load ptr, ptr %7, align 8, !tbaa !3
  %92 = call i32 @PyObject_RichCompareBool(ptr noundef %90, ptr noundef %91, i32 noundef 0)
  store i32 %92, ptr %11, align 4, !tbaa !17
  %93 = load i32, ptr %11, align 4, !tbaa !17
  %94 = icmp sgt i32 %93, 0
  br i1 %94, label %95, label %104

95:                                               ; preds = %89
  br label %96

96:                                               ; preds = %95
  call void @llvm.lifetime.start.p0(i64 8, ptr %15) #10
  store ptr %7, ptr %15, align 8, !tbaa !9
  call void @llvm.lifetime.start.p0(i64 8, ptr %16) #10
  %97 = load ptr, ptr %15, align 8, !tbaa !9
  %98 = load ptr, ptr %97, align 8, !tbaa !3
  store ptr %98, ptr %16, align 8, !tbaa !3
  %99 = load ptr, ptr %9, align 8, !tbaa !3
  %100 = load ptr, ptr %15, align 8, !tbaa !9
  store ptr %99, ptr %100, align 8, !tbaa !3
  %101 = load ptr, ptr %16, align 8, !tbaa !3
  call void @Py_DECREF(ptr noundef %101)
  call void @llvm.lifetime.end.p0(i64 8, ptr %16) #10
  call void @llvm.lifetime.end.p0(i64 8, ptr %15) #10
  br label %102

102:                                              ; preds = %96
  br label %103

103:                                              ; preds = %102
  br label %110

104:                                              ; preds = %89
  %105 = load ptr, ptr %9, align 8, !tbaa !3
  call void @Py_DECREF(ptr noundef %105)
  %106 = load i32, ptr %11, align 4, !tbaa !17
  %107 = icmp slt i32 %106, 0
  br i1 %107, label %108, label %109

108:                                              ; preds = %104
  br label %127

109:                                              ; preds = %104
  br label %110

110:                                              ; preds = %109, %103
  %111 = load ptr, ptr %7, align 8, !tbaa !3
  %112 = call i64 @PyLong_AsLongLongAndOverflow(ptr noundef %111, ptr noundef %10)
  store i64 %112, ptr %12, align 8, !tbaa !91
  %113 = load i32, ptr %10, align 4, !tbaa !17
  %114 = icmp ne i32 %113, 0
  br i1 %114, label %115, label %118

115:                                              ; preds = %110
  %116 = load ptr, ptr @PyExc_OverflowError, align 8, !tbaa !3
  %117 = call ptr (ptr, ptr, ...) @PyErr_Format(ptr noundef %116, ptr noundef @.str.90, i64 noundef 9223372036854775807)
  br label %127

118:                                              ; preds = %110
  br label %119

119:                                              ; preds = %118, %75
  %120 = load ptr, ptr %6, align 8, !tbaa !3
  %121 = load i64, ptr %12, align 8, !tbaa !91
  %122 = call ptr @perm_comb(ptr noundef %120, i64 noundef %121, i32 noundef 1)
  store ptr %122, ptr %8, align 8, !tbaa !3
  br label %123

123:                                              ; preds = %119, %86, %71, %53
  %124 = load ptr, ptr %6, align 8, !tbaa !3
  call void @Py_DECREF(ptr noundef %124)
  %125 = load ptr, ptr %7, align 8, !tbaa !3
  call void @Py_DECREF(ptr noundef %125)
  %126 = load ptr, ptr %8, align 8, !tbaa !3
  store ptr %126, ptr %4, align 8
  store i32 1, ptr %14, align 4
  br label %130

127:                                              ; preds = %115, %108, %82, %37, %32
  %128 = load ptr, ptr %6, align 8, !tbaa !3
  call void @Py_DECREF(ptr noundef %128)
  %129 = load ptr, ptr %7, align 8, !tbaa !3
  call void @Py_DECREF(ptr noundef %129)
  store ptr null, ptr %4, align 8
  store i32 1, ptr %14, align 4
  br label %130

130:                                              ; preds = %127, %123, %27, %21
  call void @llvm.lifetime.end.p0(i64 8, ptr %13) #10
  call void @llvm.lifetime.end.p0(i64 8, ptr %12) #10
  call void @llvm.lifetime.end.p0(i64 4, ptr %11) #10
  call void @llvm.lifetime.end.p0(i64 4, ptr %10) #10
  call void @llvm.lifetime.end.p0(i64 8, ptr %9) #10
  call void @llvm.lifetime.end.p0(i64 8, ptr %8) #10
  %131 = load ptr, ptr %4, align 8
  ret ptr %131
}

; Function Attrs: nounwind uwtable
define internal ptr @math_comb(ptr noundef %0, ptr noundef %1, i64 noundef %2) #0 {
  %4 = alloca ptr, align 8
  %5 = alloca ptr, align 8
  %6 = alloca i64, align 8
  %7 = alloca ptr, align 8
  %8 = alloca ptr, align 8
  %9 = alloca ptr, align 8
  store ptr %0, ptr %4, align 8, !tbaa !3
  store ptr %1, ptr %5, align 8, !tbaa !9
  store i64 %2, ptr %6, align 8, !tbaa !11
  call void @llvm.lifetime.start.p0(i64 8, ptr %7) #10
  store ptr null, ptr %7, align 8, !tbaa !3
  call void @llvm.lifetime.start.p0(i64 8, ptr %8) #10
  call void @llvm.lifetime.start.p0(i64 8, ptr %9) #10
  %10 = load i64, ptr %6, align 8, !tbaa !11
  %11 = icmp sle i64 2, %10
  br i1 %11, label %12, label %15

12:                                               ; preds = %3
  %13 = load i64, ptr %6, align 8, !tbaa !11
  %14 = icmp sle i64 %13, 2
  br i1 %14, label %20, label %15

15:                                               ; preds = %12, %3
  %16 = load i64, ptr %6, align 8, !tbaa !11
  %17 = call i32 @_PyArg_CheckPositional(ptr noundef @.str.55, i64 noundef %16, i64 noundef 2, i64 noundef 2)
  %18 = icmp ne i32 %17, 0
  br i1 %18, label %20, label %19

19:                                               ; preds = %15
  br label %31

20:                                               ; preds = %15, %12
  %21 = load ptr, ptr %5, align 8, !tbaa !9
  %22 = getelementptr ptr, ptr %21, i64 0
  %23 = load ptr, ptr %22, align 8, !tbaa !3
  store ptr %23, ptr %8, align 8, !tbaa !3
  %24 = load ptr, ptr %5, align 8, !tbaa !9
  %25 = getelementptr ptr, ptr %24, i64 1
  %26 = load ptr, ptr %25, align 8, !tbaa !3
  store ptr %26, ptr %9, align 8, !tbaa !3
  %27 = load ptr, ptr %4, align 8, !tbaa !3
  %28 = load ptr, ptr %8, align 8, !tbaa !3
  %29 = load ptr, ptr %9, align 8, !tbaa !3
  %30 = call ptr @math_comb_impl(ptr noundef %27, ptr noundef %28, ptr noundef %29)
  store ptr %30, ptr %7, align 8, !tbaa !3
  br label %31

31:                                               ; preds = %20, %19
  %32 = load ptr, ptr %7, align 8, !tbaa !3
  call void @llvm.lifetime.end.p0(i64 8, ptr %9) #10
  call void @llvm.lifetime.end.p0(i64 8, ptr %8) #10
  call void @llvm.lifetime.end.p0(i64 8, ptr %7) #10
  ret ptr %32
}