; Function Attrs: nounwind uwtable
define internal ptr @math_comb(ptr readnone captures(none) %0, ptr noundef readonly captures(none) %1, i64 noundef %2) #0 {
  %4 = alloca i32, align 4
  %or.cond = icmp eq i64 %2, 2
  br i1 %or.cond, label %7, label %5

5:                                                ; preds = %3
  %6 = tail call i32 @_PyArg_CheckPositional(ptr noundef nonnull @.str.55, i64 noundef %2, i64 noundef 2, i64 noundef 2) #16
  %.not = icmp eq i32 %6, 0
  br i1 %.not, label %108, label %7

7:                                                ; preds = %3, %5
  %8 = load ptr, ptr %1, align 8, !tbaa !12
  %9 = getelementptr i8, ptr %1, i64 8
  %10 = load ptr, ptr %9, align 8, !tbaa !12
  call void @llvm.lifetime.start.p0(i64 4, ptr nonnull %4) #16
  %11 = tail call ptr @PyNumber_Index(ptr noundef %8) #16
  %12 = icmp eq ptr %11, null
  br i1 %12, label %math_comb_impl.exit, label %13

13:                                               ; preds = %7
  %14 = tail call ptr @PyNumber_Index(ptr noundef %10) #16
  %15 = icmp eq ptr %14, null
  br i1 %15, label %16, label %22

16:                                               ; preds = %13
  %17 = load i32, ptr %11, align 8, !tbaa !13
  %.not.i67.i = icmp sgt i32 %17, -1
  br i1 %.not.i67.i, label %18, label %math_comb_impl.exit

18:                                               ; preds = %16
  %19 = add nsw i32 %17, -1
  store i32 %19, ptr %11, align 8, !tbaa !13
  %20 = icmp eq i32 %19, 0
  br i1 %20, label %21, label %math_comb_impl.exit

21:                                               ; preds = %18
  tail call void @_Py_Dealloc(ptr noundef nonnull %11) #16
  br label %math_comb_impl.exit

22:                                               ; preds = %13
  %23 = getelementptr i8, ptr %11, i64 16
  %.val77.i = load i64, ptr %23, align 8, !tbaa !45
  %24 = and i64 %.val77.i, 3
  %25 = icmp eq i64 %24, 2
  br i1 %25, label %26, label %28

26:                                               ; preds = %22
  %27 = load ptr, ptr @PyExc_ValueError, align 8, !tbaa !12
  tail call void @PyErr_SetString(ptr noundef %27, ptr noundef nonnull @.str.87) #16
  br label %97

28:                                               ; preds = %22
  %29 = getelementptr i8, ptr %14, i64 16
  %.val76.i = load i64, ptr %29, align 8, !tbaa !45
  %30 = and i64 %.val76.i, 3
  %31 = icmp eq i64 %30, 2
  br i1 %31, label %32, label %34

32:                                               ; preds = %28
  %33 = load ptr, ptr @PyExc_ValueError, align 8, !tbaa !12
  tail call void @PyErr_SetString(ptr noundef %33, ptr noundef nonnull @.str.88) #16
  br label %97

34:                                               ; preds = %28
  %35 = call i64 @PyLong_AsLongLongAndOverflow(ptr noundef nonnull %11, ptr noundef nonnull %4) #16
  %36 = load i32, ptr %4, align 4, !tbaa !14
  %.not.i = icmp eq i32 %36, 0
  br i1 %.not.i, label %37, label %49

37:                                               ; preds = %34
  %38 = call i64 @PyLong_AsLongLongAndOverflow(ptr noundef nonnull %14, ptr noundef nonnull %4) #16
  %39 = load i32, ptr %4, align 4, !tbaa !14
  %.not53.i = icmp ne i32 %39, 0
  %40 = icmp sgt i64 %38, %35
  %or.cond.i = select i1 %.not53.i, i1 true, i1 %40
  br i1 %or.cond.i, label %41, label %43

41:                                               ; preds = %37
  %42 = call ptr @PyLong_FromLong(i64 noundef 0) #16
  br label %86

43:                                               ; preds = %37
  %44 = sub i64 %35, %38
  %45 = call i64 @llvm.smin.i64(i64 %38, i64 %44)
  %46 = icmp sgt i64 %45, 1
  br i1 %46, label %47, label %84

47:                                               ; preds = %43
  %48 = call fastcc ptr @perm_comb_small(i64 noundef %35, i64 noundef %45, i32 noundef 1)
  br label %86

49:                                               ; preds = %34
  %50 = call ptr @PyNumber_Subtract(ptr noundef nonnull %11, ptr noundef nonnull %14) #16
  %51 = icmp eq ptr %50, null
  br i1 %51, label %97, label %52

52:                                               ; preds = %49
  %53 = getelementptr i8, ptr %50, i64 16
  %.val.i = load i64, ptr %53, align 8, !tbaa !45
  %54 = and i64 %.val.i, 3
  %55 = icmp eq i64 %54, 2
  br i1 %55, label %56, label %63

56:                                               ; preds = %52
  %57 = load i32, ptr %50, align 8, !tbaa !13
  %.not.i65.i = icmp sgt i32 %57, -1
  br i1 %.not.i65.i, label %58, label %Py_DECREF.exit66.i

58:                                               ; preds = %56
  %59 = add nsw i32 %57, -1
  store i32 %59, ptr %50, align 8, !tbaa !13
  %60 = icmp eq i32 %59, 0
  br i1 %60, label %61, label %Py_DECREF.exit66.i

61:                                               ; preds = %58
  call void @_Py_Dealloc(ptr noundef nonnull %50) #16
  br label %Py_DECREF.exit66.i

Py_DECREF.exit66.i:                               ; preds = %61, %58, %56
  %62 = call ptr @PyLong_FromLong(i64 noundef 0) #16
  br label %86

63:                                               ; preds = %52
  %64 = call i32 @PyObject_RichCompareBool(ptr noundef nonnull %50, ptr noundef nonnull %14, i32 noundef 0) #16
  %65 = icmp sgt i32 %64, 0
  br i1 %65, label %66, label %72

66:                                               ; preds = %63
  %67 = load i32, ptr %14, align 8, !tbaa !13
  %.not.i63.i = icmp sgt i32 %67, -1
  br i1 %.not.i63.i, label %68, label %Py_DECREF.exit64.i

68:                                               ; preds = %66
  %69 = add nsw i32 %67, -1
  store i32 %69, ptr %14, align 8, !tbaa !13
  %70 = icmp eq i32 %69, 0
  br i1 %70, label %71, label %Py_DECREF.exit64.i

71:                                               ; preds = %68
  call void @_Py_Dealloc(ptr noundef nonnull %14) #16
  br label %Py_DECREF.exit64.i

72:                                               ; preds = %63
  %73 = load i32, ptr %50, align 8, !tbaa !13
  %.not.i61.i = icmp sgt i32 %73, -1
  br i1 %.not.i61.i, label %74, label %Py_DECREF.exit62.i

74:                                               ; preds = %72
  %75 = add nsw i32 %73, -1
  store i32 %75, ptr %50, align 8, !tbaa !13
  %76 = icmp eq i32 %75, 0
  br i1 %76, label %77, label %Py_DECREF.exit62.i

77:                                               ; preds = %74
  call void @_Py_Dealloc(ptr noundef nonnull %50) #16
  br label %Py_DECREF.exit62.i

Py_DECREF.exit62.i:                               ; preds = %77, %74, %72
  %78 = icmp slt i32 %64, 0
  br i1 %78, label %97, label %Py_DECREF.exit64.i

Py_DECREF.exit64.i:                               ; preds = %Py_DECREF.exit62.i, %71, %68, %66
  %.3.i = phi ptr [ %14, %Py_DECREF.exit62.i ], [ %50, %66 ], [ %50, %68 ], [ %50, %71 ]
  %79 = call i64 @PyLong_AsLongLongAndOverflow(ptr noundef nonnull %.3.i, ptr noundef nonnull %4) #16
  %80 = load i32, ptr %4, align 4, !tbaa !14
  %.not54.i = icmp eq i32 %80, 0
  br i1 %.not54.i, label %84, label %81

81:                                               ; preds = %Py_DECREF.exit64.i
  %82 = load ptr, ptr @PyExc_OverflowError, align 8, !tbaa !12
  %83 = call ptr (ptr, ptr, ...) @PyErr_Format(ptr noundef %82, ptr noundef nonnull @.str.90, i64 noundef 9223372036854775807) #16
  br label %97

84:                                               ; preds = %Py_DECREF.exit64.i, %43
  %.2.i = phi ptr [ %.3.i, %Py_DECREF.exit64.i ], [ %14, %43 ]
  %.034.i = phi i64 [ %79, %Py_DECREF.exit64.i ], [ %45, %43 ]
  %85 = call fastcc ptr @perm_comb(ptr noundef %11, i64 noundef %.034.i, i32 noundef 1)
  br label %86

86:                                               ; preds = %84, %Py_DECREF.exit66.i, %47, %41
  %.1.i = phi ptr [ %14, %Py_DECREF.exit66.i ], [ %.2.i, %84 ], [ %14, %41 ], [ %14, %47 ]
  %.033.i = phi ptr [ %62, %Py_DECREF.exit66.i ], [ %85, %84 ], [ %42, %41 ], [ %48, %47 ]
  %87 = load i32, ptr %11, align 8, !tbaa !13
  %.not.i59.i = icmp sgt i32 %87, -1
  br i1 %.not.i59.i, label %88, label %Py_DECREF.exit60.i

88:                                               ; preds = %86
  %89 = add nsw i32 %87, -1
  store i32 %89, ptr %11, align 8, !tbaa !13
  %90 = icmp eq i32 %89, 0
  br i1 %90, label %91, label %Py_DECREF.exit60.i

91:                                               ; preds = %88
  call void @_Py_Dealloc(ptr noundef nonnull %11) #16
  br label %Py_DECREF.exit60.i

Py_DECREF.exit60.i:                               ; preds = %91, %88, %86
  %92 = load i32, ptr %.1.i, align 8, !tbaa !13
  %.not.i57.i = icmp sgt i32 %92, -1
  br i1 %.not.i57.i, label %93, label %math_comb_impl.exit

93:                                               ; preds = %Py_DECREF.exit60.i
  %94 = add nsw i32 %92, -1
  store i32 %94, ptr %.1.i, align 8, !tbaa !13
  %95 = icmp eq i32 %94, 0
  br i1 %95, label %96, label %math_comb_impl.exit

96:                                               ; preds = %93
  call void @_Py_Dealloc(ptr noundef nonnull %.1.i) #16
  br label %math_comb_impl.exit

97:                                               ; preds = %81, %Py_DECREF.exit62.i, %49, %32, %26
  %.044.i = phi ptr [ %14, %26 ], [ %14, %32 ], [ %14, %49 ], [ %.3.i, %81 ], [ %14, %Py_DECREF.exit62.i ]
  %98 = load i32, ptr %11, align 8, !tbaa !13
  %.not.i55.i = icmp sgt i32 %98, -1
  br i1 %.not.i55.i, label %99, label %Py_DECREF.exit56.i

99:                                               ; preds = %97
  %100 = add nsw i32 %98, -1
  store i32 %100, ptr %11, align 8, !tbaa !13
  %101 = icmp eq i32 %100, 0
  br i1 %101, label %102, label %Py_DECREF.exit56.i

102:                                              ; preds = %99
  call void @_Py_Dealloc(ptr noundef nonnull %11) #16
  br label %Py_DECREF.exit56.i

Py_DECREF.exit56.i:                               ; preds = %102, %99, %97
  %103 = load i32, ptr %.044.i, align 8, !tbaa !13
  %.not.i.i = icmp sgt i32 %103, -1
  br i1 %.not.i.i, label %104, label %math_comb_impl.exit

104:                                              ; preds = %Py_DECREF.exit56.i
  %105 = add nsw i32 %103, -1
  store i32 %105, ptr %.044.i, align 8, !tbaa !13
  %106 = icmp eq i32 %105, 0
  br i1 %106, label %107, label %math_comb_impl.exit

107:                                              ; preds = %104
  call void @_Py_Dealloc(ptr noundef nonnull %.044.i) #16
  br label %math_comb_impl.exit

math_comb_impl.exit:                              ; preds = %7, %16, %18, %21, %Py_DECREF.exit60.i, %93, %96, %Py_DECREF.exit56.i, %104, %107
  %.0.i = phi ptr [ null, %7 ], [ null, %16 ], [ null, %18 ], [ null, %21 ], [ %.033.i, %Py_DECREF.exit60.i ], [ %.033.i, %93 ], [ %.033.i, %96 ], [ null, %Py_DECREF.exit56.i ], [ null, %104 ], [ null, %107 ]
  call void @llvm.lifetime.end.p0(i64 4, ptr nonnull %4) #16
  br label %108

108:                                              ; preds = %5, %math_comb_impl.exit
  %.0 = phi ptr [ %.0.i, %math_comb_impl.exit ], [ null, %5 ]
  ret ptr %.0
}